target datalayout = "e-m:e-p270:32:32-p271:32:32-p272:64:64-i64:64-i128:128-f80:128-n8:16:32:64-S128"
target triple = "x86_64-pc-linux-gnu"

@.str.2071 = private unnamed_addr constant [18 x i8] c"0 (not supported)\00", align 1
@.str.2072 = private unnamed_addr constant [13 x i8] c"%u degrees K\00", align 1

; Function Attrs: null_pointer_is_valid sspstrong uwtable
define internal void @add_ctrl_tmt(ptr noundef %0, i32 noundef %1) #0 {
  %3 = alloca ptr, align 8
  %4 = alloca i32, align 4
  store ptr %0, ptr %3, align 8
  store i32 %1, ptr %4, align 4
  %5 = load i32, ptr %4, align 4
  %6 = icmp ne i32 %5, 0
  br i1 %6, label %12, label %7

7:                                                ; preds = %2
  %8 = load ptr, ptr %3, align 8
  %9 = load ptr, ptr %3, align 8
  %10 = call i64 @llvm.objectsize.i64.p0(ptr %9, i1 false, i1 true, i1 true)
  %11 = call i32 (ptr, i64, i32, i64, ptr, ...) @__snprintf_chk(ptr noundef %8, i64 noundef 240, i32 noundef 2, i64 noundef %10, ptr noundef @.str.2071)
  br label %18

12:                                               ; preds = %2
  %13 = load ptr, ptr %3, align 8
  %14 = load ptr, ptr %3, align 8
  %15 = call i64 @llvm.objectsize.i64.p0(ptr %14, i1 false, i1 true, i1 true)
  %16 = load i32, ptr %4, align 4
  %17 = call i32 (ptr, i64, i32, i64, ptr, ...) @__snprintf_chk(ptr noundef %13, i64 noundef 240, i32 noundef 2, i64 noundef %15, ptr noundef @.str.2072, i32 noundef %16)
  br label %18

18:                                               ; preds = %12, %7
  ret void
}